target datalayout = "e-m:e-p270:32:32-p271:32:32-p272:64:64-i64:64-i128:128-f80:128-n8:16:32:64-S128"
target triple = "x86_64-pc-linux-gnu"

%struct.AVRational = type { i32, i32 }
%struct.AVChannelLayout = type { i32, i32, %union.anon, ptr }
%union.anon = type { i64 }
%struct.AVFilterContext = type { ptr, ptr, ptr, ptr, ptr, i32, ptr, ptr, i32, ptr, ptr, i32, i32, ptr, ptr, ptr, ptr, i32, ptr, i32, i32 }
%struct.BufferSourceContext = type { ptr, %struct.AVRational, %struct.AVRational, i32, i32, i32, i32, i32, i32, i32, i32, i32, i32, i32, %struct.AVRational, ptr, i32, i32, i32, %struct.AVChannelLayout, ptr, i32, i32, i64, i32, i32 }
%struct.AVFilterLink = type { ptr, ptr, ptr, ptr, i32, i32, i32, i32, %struct.AVRational, i32, i32, i32, %struct.AVChannelLayout, %struct.AVRational, ptr, i32, %struct.AVFilterFormatsConfig, %struct.AVFilterFormatsConfig }
%struct.AVFilterFormatsConfig = type { ptr, ptr, ptr, ptr, ptr }
%struct.FilterLink = type { %struct.AVFilterLink, ptr, i64, i64, i32, i32, i64, i64, i64, i64, %struct.AVRational, ptr }

; Function Attrs: inlinehint nounwind uwtable
define internal ptr @ff_filter_link(ptr noundef %0) #4 {
  %2 = alloca ptr, align 8
  store ptr %0, ptr %2, align 8, !tbaa !85
  %3 = load ptr, ptr %2, align 8, !tbaa !85
  ret ptr %3
}

; Function Attrs: nounwind uwtable
define internal i32 @config_props(ptr noundef %0) #0 {
  %2 = alloca i32, align 4
  %3 = alloca ptr, align 8
  %4 = alloca ptr, align 8
  %5 = alloca ptr, align 8
  %6 = alloca i32, align 4
  %7 = alloca i32, align 4
  %8 = alloca i32, align 4
  %9 = alloca i32, align 4
  store ptr %0, ptr %3, align 8, !tbaa !85
  call void @llvm.lifetime.start.p0(i64 8, ptr %4) #7
  %10 = load ptr, ptr %3, align 8, !tbaa !85
  %11 = call ptr @ff_filter_link(ptr noundef %10)
  store ptr %11, ptr %4, align 8, !tbaa !140
  call void @llvm.lifetime.start.p0(i64 8, ptr %5) #7
  %12 = load ptr, ptr %3, align 8, !tbaa !85
  %13 = getelementptr inbounds nuw %struct.AVFilterLink, ptr %12, i32 0, i32 0
  %14 = load ptr, ptr %13, align 8, !tbaa !142
  %15 = getelementptr inbounds nuw %struct.AVFilterContext, ptr %14, i32 0, i32 9
  %16 = load ptr, ptr %15, align 8, !tbaa !21
  store ptr %16, ptr %5, align 8, !tbaa !31
  %17 = load ptr, ptr %3, align 8, !tbaa !85
  %18 = getelementptr inbounds nuw %struct.AVFilterLink, ptr %17, i32 0, i32 4
  %19 = load i32, ptr %18, align 8, !tbaa !87
  switch i32 %19, label %80 [
    i32 0, label %20
    i32 1, label %53
  ]

20:                                               ; preds = %1
  %21 = load ptr, ptr %5, align 8, !tbaa !31
  %22 = getelementptr inbounds nuw %struct.BufferSourceContext, ptr %21, i32 0, i32 4
  %23 = load i32, ptr %22, align 4, !tbaa !48
  %24 = load ptr, ptr %3, align 8, !tbaa !85
  %25 = getelementptr inbounds nuw %struct.AVFilterLink, ptr %24, i32 0, i32 6
  store i32 %23, ptr %25, align 8, !tbaa !143
  %26 = load ptr, ptr %5, align 8, !tbaa !31
  %27 = getelementptr inbounds nuw %struct.BufferSourceContext, ptr %26, i32 0, i32 5
  %28 = load i32, ptr %27, align 8, !tbaa !51
  %29 = load ptr, ptr %3, align 8, !tbaa !85
  %30 = getelementptr inbounds nuw %struct.AVFilterLink, ptr %29, i32 0, i32 7
  store i32 %28, ptr %30, align 4, !tbaa !144
  %31 = load ptr, ptr %3, align 8, !tbaa !85
  %32 = getelementptr inbounds nuw %struct.AVFilterLink, ptr %31, i32 0, i32 8
  %33 = load ptr, ptr %5, align 8, !tbaa !31
  %34 = getelementptr inbounds nuw %struct.BufferSourceContext, ptr %33, i32 0, i32 14
  call void @llvm.memcpy.p0.p0.i64(ptr align 8 %32, ptr align 4 %34, i64 8, i1 false), !tbaa.struct !35
  %35 = load ptr, ptr %5, align 8, !tbaa !31
  %36 = getelementptr inbounds nuw %struct.BufferSourceContext, ptr %35, i32 0, i32 15
  %37 = load ptr, ptr %36, align 8, !tbaa !57
  %38 = icmp ne ptr %37, null
  br i1 %38, label %39, label %52

39:                                               ; preds = %20
  %40 = load ptr, ptr %5, align 8, !tbaa !31
  %41 = getelementptr inbounds nuw %struct.BufferSourceContext, ptr %40, i32 0, i32 15
  %42 = load ptr, ptr %41, align 8, !tbaa !57
  %43 = call ptr @av_buffer_ref(ptr noundef %42)
  %44 = load ptr, ptr %4, align 8, !tbaa !140
  %45 = getelementptr inbounds nuw %struct.FilterLink, ptr %44, i32 0, i32 11
  store ptr %43, ptr %45, align 8, !tbaa !145
  %46 = load ptr, ptr %4, align 8, !tbaa !140
  %47 = getelementptr inbounds nuw %struct.FilterLink, ptr %46, i32 0, i32 11
  %48 = load ptr, ptr %47, align 8, !tbaa !145
  %49 = icmp ne ptr %48, null
  br i1 %49, label %51, label %50

50:                                               ; preds = %39
  store i32 -12, ptr %2, align 4
  store i32 1, ptr %6, align 4
  br label %128

51:                                               ; preds = %39
  br label %52

52:                                               ; preds = %51, %20
  br label %81

53:                                               ; preds = %1
  %54 = load ptr, ptr %5, align 8, !tbaa !31
  %55 = getelementptr inbounds nuw %struct.BufferSourceContext, ptr %54, i32 0, i32 19
  %56 = getelementptr inbounds nuw %struct.AVChannelLayout, ptr %55, i32 0, i32 1
  %57 = load i32, ptr %56, align 4, !tbaa !101
  %58 = icmp ne i32 %57, 0
  br i1 %58, label %59, label %65

59:                                               ; preds = %53
  %60 = load ptr, ptr %5, align 8, !tbaa !31
  %61 = getelementptr inbounds nuw %struct.BufferSourceContext, ptr %60, i32 0, i32 19
  %62 = getelementptr inbounds nuw %struct.AVChannelLayout, ptr %61, i32 0, i32 0
  %63 = load i32, ptr %62, align 8, !tbaa !104
  %64 = icmp eq i32 %63, 0
  br i1 %64, label %65, label %79

65:                                               ; preds = %59, %53
  call void @llvm.lifetime.start.p0(i64 4, ptr %7) #7
  %66 = load ptr, ptr %5, align 8, !tbaa !31
  %67 = getelementptr inbounds nuw %struct.BufferSourceContext, ptr %66, i32 0, i32 19
  %68 = load ptr, ptr %3, align 8, !tbaa !85
  %69 = getelementptr inbounds nuw %struct.AVFilterLink, ptr %68, i32 0, i32 12
  %70 = call i32 @av_channel_layout_copy(ptr noundef %67, ptr noundef %69)
  store i32 %70, ptr %7, align 4, !tbaa !36
  %71 = load i32, ptr %7, align 4, !tbaa !36
  %72 = icmp slt i32 %71, 0
  br i1 %72, label %73, label %75

73:                                               ; preds = %65
  %74 = load i32, ptr %7, align 4, !tbaa !36
  store i32 %74, ptr %2, align 4
  store i32 1, ptr %6, align 4
  br label %76

75:                                               ; preds = %65
  store i32 0, ptr %6, align 4
  br label %76

76:                                               ; preds = %75, %73
  call void @llvm.lifetime.end.p0(i64 4, ptr %7) #7
  %77 = load i32, ptr %6, align 4
  switch i32 %77, label %128 [
    i32 0, label %78
  ]

78:                                               ; preds = %76
  br label %79

79:                                               ; preds = %78, %59
  br label %81

80:                                               ; preds = %1
  store i32 -22, ptr %2, align 4
  store i32 1, ptr %6, align 4
  br label %128

81:                                               ; preds = %79, %52
  call void @llvm.lifetime.start.p0(i64 4, ptr %8) #7
  store i32 0, ptr %8, align 4, !tbaa !36
  br label %82

82:                                               ; preds = %114, %81
  %83 = load i32, ptr %8, align 4, !tbaa !36
  %84 = load ptr, ptr %5, align 8, !tbaa !31
  %85 = getelementptr inbounds nuw %struct.BufferSourceContext, ptr %84, i32 0, i32 21
  %86 = load i32, ptr %85, align 8, !tbaa !147
  %87 = icmp slt i32 %83, %86
  br i1 %87, label %89, label %88

88:                                               ; preds = %82
  store i32 3, ptr %6, align 4
  br label %117

89:                                               ; preds = %82
  call void @llvm.lifetime.start.p0(i64 4, ptr %9) #7
  %90 = load ptr, ptr %3, align 8, !tbaa !85
  %91 = getelementptr inbounds nuw %struct.AVFilterLink, ptr %90, i32 0, i32 14
  %92 = load ptr, ptr %3, align 8, !tbaa !85
  %93 = getelementptr inbounds nuw %struct.AVFilterLink, ptr %92, i32 0, i32 15
  %94 = load ptr, ptr %5, align 8, !tbaa !31
  %95 = getelementptr inbounds nuw %struct.BufferSourceContext, ptr %94, i32 0, i32 20
  %96 = load ptr, ptr %95, align 8, !tbaa !148
  %97 = load i32, ptr %8, align 4, !tbaa !36
  %98 = sext i32 %97 to i64
  %99 = getelementptr inbounds ptr, ptr %96, i64 %98
  %100 = load ptr, ptr %99, align 8, !tbaa !68
  %101 = call i32 @av_frame_side_data_clone(ptr noundef %91, ptr noundef %93, ptr noundef %100, i32 noundef 0)
  store i32 %101, ptr %9, align 4, !tbaa !36
  %102 = load i32, ptr %9, align 4, !tbaa !36
  %103 = icmp slt i32 %102, 0
  br i1 %103, label %104, label %110

104:                                              ; preds = %89
  %105 = load ptr, ptr %3, align 8, !tbaa !85
  %106 = getelementptr inbounds nuw %struct.AVFilterLink, ptr %105, i32 0, i32 14
  %107 = load ptr, ptr %3, align 8, !tbaa !85
  %108 = getelementptr inbounds nuw %struct.AVFilterLink, ptr %107, i32 0, i32 15
  call void @av_frame_side_data_free(ptr noundef %106, ptr noundef %108)
  %109 = load i32, ptr %9, align 4, !tbaa !36
  store i32 %109, ptr %2, align 4
  store i32 1, ptr %6, align 4
  br label %111

110:                                              ; preds = %89
  store i32 0, ptr %6, align 4
  br label %111

111:                                              ; preds = %110, %104
  call void @llvm.lifetime.end.p0(i64 4, ptr %9) #7
  %112 = load i32, ptr %6, align 4
  switch i32 %112, label %117 [
    i32 0, label %113
  ]

113:                                              ; preds = %111
  br label %114

114:                                              ; preds = %113
  %115 = load i32, ptr %8, align 4, !tbaa !36
  %116 = add nsw i32 %115, 1
  store i32 %116, ptr %8, align 4, !tbaa !36
  br label %82, !llvm.loop !149

117:                                              ; preds = %111, %88
  call void @llvm.lifetime.end.p0(i64 4, ptr %8) #7
  %118 = load i32, ptr %6, align 4
  switch i32 %118, label %128 [
    i32 3, label %119
  ]

119:                                              ; preds = %117
  %120 = load ptr, ptr %3, align 8, !tbaa !85
  %121 = getelementptr inbounds nuw %struct.AVFilterLink, ptr %120, i32 0, i32 13
  %122 = load ptr, ptr %5, align 8, !tbaa !31
  %123 = getelementptr inbounds nuw %struct.BufferSourceContext, ptr %122, i32 0, i32 1
  call void @llvm.memcpy.p0.p0.i64(ptr align 8 %121, ptr align 8 %123, i64 8, i1 false), !tbaa.struct !35
  %124 = load ptr, ptr %4, align 8, !tbaa !140
  %125 = getelementptr inbounds nuw %struct.FilterLink, ptr %124, i32 0, i32 10
  %126 = load ptr, ptr %5, align 8, !tbaa !31
  %127 = getelementptr inbounds nuw %struct.BufferSourceContext, ptr %126, i32 0, i32 2
  call void @llvm.memcpy.p0.p0.i64(ptr align 8 %125, ptr align 8 %127, i64 8, i1 false), !tbaa.struct !35
  store i32 0, ptr %2, align 4
  store i32 1, ptr %6, align 4
  br label %128

128:                                              ; preds = %119, %117, %80, %76, %50
  call void @llvm.lifetime.end.p0(i64 8, ptr %5) #7
  call void @llvm.lifetime.end.p0(i64 8, ptr %4) #7
  %129 = load i32, ptr %2, align 4
  ret i32 %129
}