; Function Attrs: nounwind uwtable
define internal range(i32 -2147483648, 1) i32 @config_props(ptr noundef %0) #0 {
  %2 = load ptr, ptr %0, align 8, !tbaa !118
  %3 = getelementptr inbounds nuw i8, ptr %2, i64 72
  %4 = load ptr, ptr %3, align 8, !tbaa !17
  %5 = getelementptr inbounds nuw i8, ptr %0, i64 32
  %6 = load i32, ptr %5, align 8, !tbaa !78
  switch i32 %6, label %54 [
    i32 0, label %7
    i32 1, label %22
  ]

7:                                                ; preds = %1
  %8 = getelementptr inbounds nuw i8, ptr %4, i64 28
  %9 = load i32, ptr %8, align 4, !tbaa !40
  %10 = getelementptr inbounds nuw i8, ptr %0, i64 40
  store i32 %9, ptr %10, align 8, !tbaa !119
  %11 = getelementptr inbounds nuw i8, ptr %4, i64 32
  %12 = load i32, ptr %11, align 8, !tbaa !43
  %13 = getelementptr inbounds nuw i8, ptr %0, i64 44
  store i32 %12, ptr %13, align 4, !tbaa !120
  %14 = getelementptr inbounds nuw i8, ptr %0, i64 48
  %15 = getelementptr inbounds nuw i8, ptr %4, i64 68
  %16 = load i64, ptr %15, align 4
  store i64 %16, ptr %14, align 8
  %17 = getelementptr inbounds nuw i8, ptr %4, i64 80
  %18 = load ptr, ptr %17, align 8, !tbaa !49
  %.not45 = icmp eq ptr %18, null
  br i1 %.not45, label %33, label %19

19:                                               ; preds = %7
  %20 = tail call ptr @av_buffer_ref(ptr noundef nonnull %18) #6
  %21 = getelementptr inbounds nuw i8, ptr %0, i64 272
  store ptr %20, ptr %21, align 8, !tbaa !121
  %.not46 = icmp eq ptr %20, null
  br i1 %.not46, label %54, label %33

22:                                               ; preds = %1
  %23 = getelementptr inbounds nuw i8, ptr %4, i64 104
  %24 = getelementptr inbounds nuw i8, ptr %4, i64 108
  %25 = load i32, ptr %24, align 4, !tbaa !93
  %.not = icmp eq i32 %25, 0
  br i1 %.not, label %29, label %26

26:                                               ; preds = %22
  %27 = load i32, ptr %23, align 8, !tbaa !96
  %28 = icmp eq i32 %27, 0
  br i1 %28, label %29, label %33

29:                                               ; preds = %26, %22
  %30 = getelementptr inbounds nuw i8, ptr %0, i64 72
  %31 = tail call i32 @av_channel_layout_copy(ptr noundef nonnull %23, ptr noundef nonnull %30) #6
  %32 = icmp sgt i32 %31, -1
  br i1 %32, label %33, label %54

33:                                               ; preds = %26, %29, %7, %19
  %34 = getelementptr inbounds nuw i8, ptr %4, i64 136
  %35 = load i32, ptr %34, align 8, !tbaa !123
  %.not4754 = icmp sgt i32 %35, 0
  br i1 %.not4754, label %.lr.ph, label %._crit_edge

.lr.ph:                                           ; preds = %33
  %36 = getelementptr inbounds nuw i8, ptr %0, i64 104
  %37 = getelementptr inbounds nuw i8, ptr %0, i64 112
  %38 = getelementptr inbounds nuw i8, ptr %4, i64 128
  br label %42

39:                                               ; preds = %42
  %indvars.iv.next = add nuw nsw i64 %indvars.iv, 1
  %40 = load i32, ptr %34, align 8, !tbaa !123
  %41 = sext i32 %40 to i64
  %.not47 = icmp slt i64 %indvars.iv.next, %41
  br i1 %.not47, label %42, label %._crit_edge, !llvm.loop !124

42:                                               ; preds = %.lr.ph, %39
  %indvars.iv = phi i64 [ 0, %.lr.ph ], [ %indvars.iv.next, %39 ]
  %43 = load ptr, ptr %38, align 8, !tbaa !125
  %44 = getelementptr inbounds nuw ptr, ptr %43, i64 %indvars.iv
  %45 = load ptr, ptr %44, align 8, !tbaa !62
  %46 = tail call i32 @av_frame_side_data_clone(ptr noundef nonnull %36, ptr noundef nonnull %37, ptr noundef %45, i32 noundef 0) #6
  %47 = icmp sgt i32 %46, -1
  br i1 %47, label %39, label %.thread50

.thread50:                                        ; preds = %42
  tail call void @av_frame_side_data_free(ptr noundef nonnull %36, ptr noundef nonnull %37) #6
  br label %54

._crit_edge:                                      ; preds = %39, %33
  %48 = getelementptr inbounds nuw i8, ptr %0, i64 96
  %49 = getelementptr inbounds nuw i8, ptr %4, i64 8
  %50 = load i64, ptr %49, align 8
  store i64 %50, ptr %48, align 8
  %51 = getelementptr inbounds nuw i8, ptr %0, i64 264
  %52 = getelementptr inbounds nuw i8, ptr %4, i64 16
  %53 = load i64, ptr %52, align 8
  store i64 %53, ptr %51, align 8
  br label %54

54:                                               ; preds = %.thread50, %1, %19, %29, %._crit_edge
  %.0 = phi i32 [ 0, %._crit_edge ], [ %31, %29 ], [ -12, %19 ], [ -22, %1 ], [ %46, %.thread50 ]
  ret i32 %.0
}